; Function Attrs: nounwind uwtable
define noalias noundef nonnull ptr @l_Array_mapMUnsafe_map___at_Lake_Package_loadFromEnv___spec__14___at_Lake_Package_loadFromEnv___spec__15___boxed(ptr noundef %0, ptr noundef %1, ptr noundef %2, ptr noundef %3, ptr noundef %4, ptr noundef %5, ptr noundef %6, ptr noundef %7, ptr noundef %8) local_unnamed_addr #2 {
  %10 = getelementptr i8, ptr %4, i64 8
  %.val24 = load i64, ptr %10, align 8, !tbaa !12
  %11 = ptrtoint ptr %4 to i64
  %12 = and i64 %11, 1
  %.not = icmp eq i64 %12, 0
  br i1 %.not, label %13, label %lean_dec.exit17

13:                                               ; preds = %9
  %14 = load i32, ptr %4, align 4, !tbaa !8
  %15 = icmp sgt i32 %14, 1
  br i1 %15, label %16, label %18, !prof !11

16:                                               ; preds = %13
  %17 = add nsw i32 %14, -1
  store i32 %17, ptr %4, align 4, !tbaa !8
  br label %lean_dec.exit17

18:                                               ; preds = %13
  %.not.i = icmp eq i32 %14, 0
  br i1 %.not.i, label %lean_dec.exit17, label %19

19:                                               ; preds = %18
  tail call void @lean_dec_ref_cold(ptr noundef nonnull %4) #5
  br label %lean_dec.exit17

lean_dec.exit17:                                  ; preds = %19, %18, %16, %9
  %20 = getelementptr i8, ptr %5, i64 8
  %.val = load i64, ptr %20, align 8, !tbaa !12
  %21 = ptrtoint ptr %5 to i64
  %22 = and i64 %21, 1
  %.not25 = icmp eq i64 %22, 0
  br i1 %.not25, label %23, label %lean_dec.exit16

23:                                               ; preds = %lean_dec.exit17
  %24 = load i32, ptr %5, align 4, !tbaa !8
  %25 = icmp sgt i32 %24, 1
  br i1 %25, label %26, label %28, !prof !11

26:                                               ; preds = %23
  %27 = add nsw i32 %24, -1
  store i32 %27, ptr %5, align 4, !tbaa !8
  br label %lean_dec.exit16

28:                                               ; preds = %23
  %.not.i18 = icmp eq i32 %24, 0
  br i1 %.not.i18, label %lean_dec.exit16, label %29

29:                                               ; preds = %28
  tail call void @lean_dec_ref_cold(ptr noundef nonnull %5) #5
  br label %lean_dec.exit16

lean_dec.exit16:                                  ; preds = %29, %28, %26, %lean_dec.exit17
  %30 = tail call ptr @l_Array_mapMUnsafe_map___at_Lake_Package_loadFromEnv___spec__14___at_Lake_Package_loadFromEnv___spec__15(ptr poison, ptr noundef %1, ptr noundef %2, ptr noundef %3, i64 noundef %.val24, i64 noundef %.val, ptr noundef %6, ptr noundef %7, ptr noundef %8)
  %31 = ptrtoint ptr %2 to i64
  %32 = and i64 %31, 1
  %.not26 = icmp eq i64 %32, 0
  br i1 %.not26, label %33, label %lean_dec.exit15

33:                                               ; preds = %lean_dec.exit16
  %34 = load i32, ptr %2, align 4, !tbaa !8
  %35 = icmp sgt i32 %34, 1
  br i1 %35, label %36, label %38, !prof !11

36:                                               ; preds = %33
  %37 = add nsw i32 %34, -1
  store i32 %37, ptr %2, align 4, !tbaa !8
  br label %lean_dec.exit15

38:                                               ; preds = %33
  %.not.i20 = icmp eq i32 %34, 0
  br i1 %.not.i20, label %lean_dec.exit15, label %39

39:                                               ; preds = %38
  tail call void @lean_dec_ref_cold(ptr noundef nonnull %2) #5
  br label %lean_dec.exit15

lean_dec.exit15:                                  ; preds = %39, %38, %36, %lean_dec.exit16
  %40 = ptrtoint ptr %0 to i64
  %41 = and i64 %40, 1
  %.not27 = icmp eq i64 %41, 0
  br i1 %.not27, label %42, label %lean_dec.exit

42:                                               ; preds = %lean_dec.exit15
  %43 = load i32, ptr %0, align 4, !tbaa !8
  %44 = icmp sgt i32 %43, 1
  br i1 %44, label %45, label %47, !prof !11

45:                                               ; preds = %42
  %46 = add nsw i32 %43, -1
  store i32 %46, ptr %0, align 4, !tbaa !8
  br label %lean_dec.exit

47:                                               ; preds = %42
  %.not.i22 = icmp eq i32 %43, 0
  br i1 %.not.i22, label %lean_dec.exit, label %48

48:                                               ; preds = %47
  tail call void @lean_dec_ref_cold(ptr noundef nonnull %0) #5
  br label %lean_dec.exit

lean_dec.exit:                                    ; preds = %48, %47, %45, %lean_dec.exit15
  ret ptr %30
}